target datalayout = "e-m:e-p270:32:32-p271:32:32-p272:64:64-i64:64-i128:128-f80:128-n8:16:32:64-S128"
target triple = "x86_64-pc-linux-gnu"

%struct.ProgressFrame = type { ptr, ptr }

; Function Attrs: nounwind uwtable
define void @ff_progress_frame_ref(ptr noundef %0, ptr noundef %1) #0 {
  %3 = alloca ptr, align 8
  %4 = alloca ptr, align 8
  store ptr %0, ptr %3, align 8, !tbaa !272
  store ptr %1, ptr %4, align 8, !tbaa !272
  %5 = load ptr, ptr %4, align 8, !tbaa !272
  %6 = getelementptr inbounds nuw %struct.ProgressFrame, ptr %5, i32 0, i32 0
  %7 = load ptr, ptr %6, align 8, !tbaa !282
  %8 = load ptr, ptr %3, align 8, !tbaa !272
  %9 = getelementptr inbounds nuw %struct.ProgressFrame, ptr %8, i32 0, i32 0
  store ptr %7, ptr %9, align 8, !tbaa !282
  %10 = load ptr, ptr %4, align 8, !tbaa !272
  %11 = getelementptr inbounds nuw %struct.ProgressFrame, ptr %10, i32 0, i32 1
  %12 = load ptr, ptr %11, align 8, !tbaa !276
  %13 = call ptr @av_refstruct_ref(ptr noundef %12)
  %14 = load ptr, ptr %3, align 8, !tbaa !272
  %15 = getelementptr inbounds nuw %struct.ProgressFrame, ptr %14, i32 0, i32 1
  store ptr %13, ptr %15, align 8, !tbaa !276
  ret void
}