; Function Attrs: nounwind uwtable
define void @ff_progress_frame_ref(ptr noundef writeonly captures(none) initializes((0, 16)) %0, ptr noundef readonly captures(none) %1) local_unnamed_addr #0 {
  %3 = load ptr, ptr %1, align 8, !tbaa !255
  store ptr %3, ptr %0, align 8, !tbaa !255
  %4 = getelementptr inbounds nuw i8, ptr %1, i64 8
  %5 = load ptr, ptr %4, align 8, !tbaa !249
  %6 = tail call ptr @av_refstruct_ref(ptr noundef %5) #10
  %7 = getelementptr inbounds nuw i8, ptr %0, i64 8
  store ptr %6, ptr %7, align 8, !tbaa !249
  ret void
}